; Function Attrs: mustprogress uwtable
define noundef zeroext i1 @_ZN6GLArea16readViewFromFileEv(ptr noundef nonnull align 8 dereferenceable(1676) %0) local_unnamed_addr #9 align 2 personality ptr @__gxx_personality_v0 {
  %2 = alloca %class.QString, align 8
  %3 = alloca %class.QString, align 8
  %4 = alloca %class.QString, align 8
  %5 = alloca %class.QString, align 8
  call void @_ZNK11QMetaObject2trEPKcS1_i(ptr dead_on_unwind nonnull writable sret(%class.QString) align 8 %3, ptr noundef nonnull align 8 dereferenceable(48) @_ZN6GLArea16staticMetaObjectE, ptr noundef nonnull @.str.115, ptr noundef null, i32 noundef -1)
  %6 = invoke noundef ptr @_ZN7QString16fromAscii_helperEPKci(ptr noundef nonnull @.str.116, i32 noundef 2)
          to label %7 unwind label %27

7:                                                ; preds = %1
  store ptr %6, ptr %4, align 8
  invoke void @_ZNK11QMetaObject2trEPKcS1_i(ptr dead_on_unwind nonnull writable sret(%class.QString) align 8 %5, ptr noundef nonnull align 8 dereferenceable(48) @_ZN6GLArea16staticMetaObjectE, ptr noundef nonnull @.str.117, ptr noundef null, i32 noundef -1)
          to label %_ZN6GLArea2trEPKcS1_i.exit unwind label %29

_ZN6GLArea2trEPKcS1_i.exit:                       ; preds = %7
  invoke void @_ZN11QFileDialog15getOpenFileNameEP7QWidgetRK7QStringS4_S4_PS2_6QFlagsINS_6OptionEE(ptr dead_on_unwind nonnull writable sret(%class.QString) align 8 %2, ptr noundef nonnull %0, ptr noundef nonnull align 8 dereferenceable(8) %3, ptr noundef nonnull align 8 dereferenceable(8) %4, ptr noundef nonnull align 8 dereferenceable(8) %5, ptr noundef null, i32 0)
          to label %8 unwind label %31

8:                                                ; preds = %_ZN6GLArea2trEPKcS1_i.exit
  %9 = load ptr, ptr %5, align 8
  %10 = load atomic i32, ptr %9 monotonic, align 4
  switch i32 %10, label %_ZN9QtPrivate8RefCount5derefEv.exit.i [
    i32 0, label %_ZN9QtPrivate8RefCount5derefEv.exit.thread2.i
    i32 -1, label %_ZN7QStringD2Ev.exit
  ]

_ZN9QtPrivate8RefCount5derefEv.exit.i:            ; preds = %8
  %11 = atomicrmw sub ptr %9, i32 1 seq_cst, align 4
  %.not.i = icmp eq i32 %11, 1
  br i1 %.not.i, label %_ZN9QtPrivate8RefCount5derefEv.exit._ZN9QtPrivate8RefCount5derefEv.exit.thread2_crit_edge.i, label %_ZN7QStringD2Ev.exit

_ZN9QtPrivate8RefCount5derefEv.exit._ZN9QtPrivate8RefCount5derefEv.exit.thread2_crit_edge.i: ; preds = %_ZN9QtPrivate8RefCount5derefEv.exit.i
  %.pre.i = load ptr, ptr %5, align 8
  br label %_ZN9QtPrivate8RefCount5derefEv.exit.thread2.i

_ZN9QtPrivate8RefCount5derefEv.exit.thread2.i:    ; preds = %_ZN9QtPrivate8RefCount5derefEv.exit._ZN9QtPrivate8RefCount5derefEv.exit.thread2_crit_edge.i, %8
  %12 = phi ptr [ %.pre.i, %_ZN9QtPrivate8RefCount5derefEv.exit._ZN9QtPrivate8RefCount5derefEv.exit.thread2_crit_edge.i ], [ %9, %8 ]
  call void @_ZN10QArrayData10deallocateEPS_mm(ptr noundef %12, i64 noundef 2, i64 noundef 8) #32
  br label %_ZN7QStringD2Ev.exit

_ZN7QStringD2Ev.exit:                             ; preds = %8, %_ZN9QtPrivate8RefCount5derefEv.exit.i, %_ZN9QtPrivate8RefCount5derefEv.exit.thread2.i
  %13 = load ptr, ptr %4, align 8
  %14 = load atomic i32, ptr %13 monotonic, align 4
  switch i32 %14, label %_ZN9QtPrivate8RefCount5derefEv.exit.i10 [
    i32 0, label %_ZN9QtPrivate8RefCount5derefEv.exit.thread2.i9
    i32 -1, label %_ZN7QStringD2Ev.exit14
  ]

_ZN9QtPrivate8RefCount5derefEv.exit.i10:          ; preds = %_ZN7QStringD2Ev.exit
  %15 = atomicrmw sub ptr %13, i32 1 seq_cst, align 4
  %.not.i11 = icmp eq i32 %15, 1
  br i1 %.not.i11, label %_ZN9QtPrivate8RefCount5derefEv.exit._ZN9QtPrivate8RefCount5derefEv.exit.thread2_crit_edge.i12, label %_ZN7QStringD2Ev.exit14

_ZN9QtPrivate8RefCount5derefEv.exit._ZN9QtPrivate8RefCount5derefEv.exit.thread2_crit_edge.i12: ; preds = %_ZN9QtPrivate8RefCount5derefEv.exit.i10
  %.pre.i13 = load ptr, ptr %4, align 8
  br label %_ZN9QtPrivate8RefCount5derefEv.exit.thread2.i9

_ZN9QtPrivate8RefCount5derefEv.exit.thread2.i9:   ; preds = %_ZN9QtPrivate8RefCount5derefEv.exit._ZN9QtPrivate8RefCount5derefEv.exit.thread2_crit_edge.i12, %_ZN7QStringD2Ev.exit
  %16 = phi ptr [ %.pre.i13, %_ZN9QtPrivate8RefCount5derefEv.exit._ZN9QtPrivate8RefCount5derefEv.exit.thread2_crit_edge.i12 ], [ %13, %_ZN7QStringD2Ev.exit ]
  call void @_ZN10QArrayData10deallocateEPS_mm(ptr noundef %16, i64 noundef 2, i64 noundef 8) #32
  br label %_ZN7QStringD2Ev.exit14

_ZN7QStringD2Ev.exit14:                           ; preds = %_ZN7QStringD2Ev.exit, %_ZN9QtPrivate8RefCount5derefEv.exit.i10, %_ZN9QtPrivate8RefCount5derefEv.exit.thread2.i9
  %17 = load ptr, ptr %3, align 8
  %18 = load atomic i32, ptr %17 monotonic, align 4
  switch i32 %18, label %_ZN9QtPrivate8RefCount5derefEv.exit.i16 [
    i32 0, label %_ZN9QtPrivate8RefCount5derefEv.exit.thread2.i15
    i32 -1, label %_ZN7QStringD2Ev.exit20
  ]

_ZN9QtPrivate8RefCount5derefEv.exit.i16:          ; preds = %_ZN7QStringD2Ev.exit14
  %19 = atomicrmw sub ptr %17, i32 1 seq_cst, align 4
  %.not.i17 = icmp eq i32 %19, 1
  br i1 %.not.i17, label %_ZN9QtPrivate8RefCount5derefEv.exit._ZN9QtPrivate8RefCount5derefEv.exit.thread2_crit_edge.i18, label %_ZN7QStringD2Ev.exit20

_ZN9QtPrivate8RefCount5derefEv.exit._ZN9QtPrivate8RefCount5derefEv.exit.thread2_crit_edge.i18: ; preds = %_ZN9QtPrivate8RefCount5derefEv.exit.i16
  %.pre.i19 = load ptr, ptr %3, align 8
  br label %_ZN9QtPrivate8RefCount5derefEv.exit.thread2.i15

_ZN9QtPrivate8RefCount5derefEv.exit.thread2.i15:  ; preds = %_ZN9QtPrivate8RefCount5derefEv.exit._ZN9QtPrivate8RefCount5derefEv.exit.thread2_crit_edge.i18, %_ZN7QStringD2Ev.exit14
  %20 = phi ptr [ %.pre.i19, %_ZN9QtPrivate8RefCount5derefEv.exit._ZN9QtPrivate8RefCount5derefEv.exit.thread2_crit_edge.i18 ], [ %17, %_ZN7QStringD2Ev.exit14 ]
  call void @_ZN10QArrayData10deallocateEPS_mm(ptr noundef %20, i64 noundef 2, i64 noundef 8) #32
  br label %_ZN7QStringD2Ev.exit20

_ZN7QStringD2Ev.exit20:                           ; preds = %_ZN7QStringD2Ev.exit14, %_ZN9QtPrivate8RefCount5derefEv.exit.i16, %_ZN9QtPrivate8RefCount5derefEv.exit.thread2.i15
  %21 = invoke noundef zeroext i1 @_ZN6GLArea16readViewFromFileERK7QString(ptr noundef nonnull align 8 dereferenceable(1676) %0, ptr noundef nonnull align 8 dereferenceable(8) %2)
          to label %22 unwind label %34

22:                                               ; preds = %_ZN7QStringD2Ev.exit20
  %23 = load ptr, ptr %2, align 8
  %24 = load atomic i32, ptr %23 monotonic, align 4
  switch i32 %24, label %_ZN9QtPrivate8RefCount5derefEv.exit.i22 [
    i32 0, label %_ZN9QtPrivate8RefCount5derefEv.exit.thread2.i21
    i32 -1, label %_ZN7QStringD2Ev.exit26
  ]

_ZN9QtPrivate8RefCount5derefEv.exit.i22:          ; preds = %22
  %25 = atomicrmw sub ptr %23, i32 1 seq_cst, align 4
  %.not.i23 = icmp eq i32 %25, 1
  br i1 %.not.i23, label %_ZN9QtPrivate8RefCount5derefEv.exit._ZN9QtPrivate8RefCount5derefEv.exit.thread2_crit_edge.i24, label %_ZN7QStringD2Ev.exit26

_ZN9QtPrivate8RefCount5derefEv.exit._ZN9QtPrivate8RefCount5derefEv.exit.thread2_crit_edge.i24: ; preds = %_ZN9QtPrivate8RefCount5derefEv.exit.i22
  %.pre.i25 = load ptr, ptr %2, align 8
  br label %_ZN9QtPrivate8RefCount5derefEv.exit.thread2.i21

_ZN9QtPrivate8RefCount5derefEv.exit.thread2.i21:  ; preds = %_ZN9QtPrivate8RefCount5derefEv.exit._ZN9QtPrivate8RefCount5derefEv.exit.thread2_crit_edge.i24, %22
  %26 = phi ptr [ %.pre.i25, %_ZN9QtPrivate8RefCount5derefEv.exit._ZN9QtPrivate8RefCount5derefEv.exit.thread2_crit_edge.i24 ], [ %23, %22 ]
  call void @_ZN10QArrayData10deallocateEPS_mm(ptr noundef %26, i64 noundef 2, i64 noundef 8) #32
  br label %_ZN7QStringD2Ev.exit26

_ZN7QStringD2Ev.exit26:                           ; preds = %22, %_ZN9QtPrivate8RefCount5derefEv.exit.i22, %_ZN9QtPrivate8RefCount5derefEv.exit.thread2.i21
  ret i1 %21

27:                                               ; preds = %1
  %28 = landingpad { ptr, i32 }
          cleanup
  br label %36

29:                                               ; preds = %7
  %30 = landingpad { ptr, i32 }
          cleanup
  br label %33

31:                                               ; preds = %_ZN6GLArea2trEPKcS1_i.exit
  %32 = landingpad { ptr, i32 }
          cleanup
  call void @_ZN7QStringD2Ev(ptr noundef nonnull align 8 dereferenceable(8) %5) #32
  br label %33

33:                                               ; preds = %31, %29
  %.pn = phi { ptr, i32 } [ %32, %31 ], [ %30, %29 ]
  call void @_ZN7QStringD2Ev(ptr noundef nonnull align 8 dereferenceable(8) %4) #32
  br label %36

34:                                               ; preds = %_ZN7QStringD2Ev.exit20
  %35 = landingpad { ptr, i32 }
          cleanup
  br label %36

36:                                               ; preds = %27, %33, %34
  %.sink = phi ptr [ %2, %34 ], [ %3, %33 ], [ %3, %27 ]
  %.pn7 = phi { ptr, i32 } [ %35, %34 ], [ %.pn, %33 ], [ %28, %27 ]
  call void @_ZN7QStringD2Ev(ptr noundef nonnull align 8 dereferenceable(8) %.sink) #32
  resume { ptr, i32 } %.pn7
}